; ModuleID = 'source-C-CXX/22/884.c'
source_filename = "source-C-CXX/22/884.c"
target datalayout = "e-m:e-p270:32:32-p271:32:32-p272:64:64-i64:64-f80:128-n8:16:32:64-S128"
target triple = "x86_64-pc-linux-gnu"

@.str = private unnamed_addr constant [4 x i8] c"%s \00", align 1
@.str.1 = private unnamed_addr constant [3 x i8] c"%s\00", align 1

; Function Attrs: nounwind sspstrong uwtable
define dso_local void @main() local_unnamed_addr #0 {
  %1 = alloca [100 x i8], align 16
  %2 = alloca [50 x [20 x i8]], align 16
  %3 = getelementptr inbounds [100 x i8], [100 x i8]* %1, i64 0, i64 0
  call void @llvm.lifetime.start.p0i8(i64 100, i8* nonnull %3) #5
  %4 = getelementptr inbounds [50 x [20 x i8]], [50 x [20 x i8]]* %2, i64 0, i64 0, i64 0
  call void @llvm.lifetime.start.p0i8(i64 1000, i8* nonnull %4) #5
  %5 = call i32 (i8*, ...) bitcast (i32 (...)* @gets to i32 (i8*, ...)*)(i8* nonnull %3) #5
  %6 = call i64 @strlen(i8* noundef nonnull %3) #6
  %7 = trunc i64 %6 to i32
  %8 = icmp sgt i32 %7, 0
  br i1 %8, label %11, label %9

9:                                                ; preds = %0
  %10 = getelementptr inbounds [50 x [20 x i8]], [50 x [20 x i8]]* %2, i64 0, i64 0, i64 0
  store i8 0, i8* %10, align 16, !tbaa !5
  br label %47

11:                                               ; preds = %0
  %12 = and i64 %6, 4294967295
  br label %13

13:                                               ; preds = %11, %28
  %14 = phi i64 [ 0, %11 ], [ %32, %28 ]
  %15 = phi i32 [ undef, %11 ], [ %29, %28 ]
  %16 = phi i32 [ 0, %11 ], [ %31, %28 ]
  %17 = phi i32 [ 0, %11 ], [ %30, %28 ]
  %18 = getelementptr inbounds [100 x i8], [100 x i8]* %1, i64 0, i64 %14
  %19 = load i8, i8* %18, align 1, !tbaa !5
  %20 = icmp eq i8 %19, 32
  %21 = sext i32 %16 to i64
  %22 = sext i32 %17 to i64
  %23 = getelementptr inbounds [50 x [20 x i8]], [50 x [20 x i8]]* %2, i64 0, i64 %21, i64 %22
  br i1 %20, label %26, label %24

24:                                               ; preds = %13
  store i8 %19, i8* %23, align 1, !tbaa !5
  %25 = add nsw i32 %17, 1
  br label %28

26:                                               ; preds = %13
  store i8 0, i8* %23, align 1, !tbaa !5
  %27 = add nsw i32 %16, 1
  br label %28

28:                                               ; preds = %24, %26
  %29 = phi i32 [ %15, %26 ], [ %16, %24 ]
  %30 = phi i32 [ 0, %26 ], [ %25, %24 ]
  %31 = phi i32 [ %27, %26 ], [ %16, %24 ]
  %32 = add nuw nsw i64 %14, 1
  %33 = icmp eq i64 %32, %12
  br i1 %33, label %34, label %13, !llvm.loop !8

34:                                               ; preds = %28
  %35 = sext i32 %31 to i64
  %36 = sext i32 %30 to i64
  %37 = getelementptr inbounds [50 x [20 x i8]], [50 x [20 x i8]]* %2, i64 0, i64 %35, i64 %36
  store i8 0, i8* %37, align 1, !tbaa !5
  %38 = icmp sgt i32 %29, 0
  br i1 %38, label %39, label %47

39:                                               ; preds = %34
  %40 = zext i32 %29 to i64
  br label %41

41:                                               ; preds = %39, %41
  %42 = phi i64 [ %40, %39 ], [ %46, %41 ]
  %43 = getelementptr inbounds [50 x [20 x i8]], [50 x [20 x i8]]* %2, i64 0, i64 %42, i64 0
  %44 = call i32 (i8*, ...) @printf(i8* nonnull dereferenceable(1) getelementptr inbounds ([4 x i8], [4 x i8]* @.str, i64 0, i64 0), i8* nonnull %43)
  %45 = icmp sgt i64 %42, 1
  %46 = add nsw i64 %42, -1
  br i1 %45, label %41, label %47, !llvm.loop !10

47:                                               ; preds = %41, %9, %34
  %48 = call i32 (i8*, ...) @printf(i8* nonnull dereferenceable(1) getelementptr inbounds ([3 x i8], [3 x i8]* @.str.1, i64 0, i64 0), i8* nonnull %4)
  call void @llvm.lifetime.end.p0i8(i64 1000, i8* nonnull %4) #5
  call void @llvm.lifetime.end.p0i8(i64 100, i8* nonnull %3) #5
  ret void
}

; Function Attrs: argmemonly mustprogress nofree nosync nounwind willreturn
declare void @llvm.lifetime.start.p0i8(i64 immarg, i8* nocapture) #1

declare i32 @gets(...) local_unnamed_addr #2

; Function Attrs: argmemonly mustprogress nofree nounwind readonly willreturn
declare i64 @strlen(i8* nocapture) local_unnamed_addr #3

; Function Attrs: nofree nounwind
declare noundef i32 @printf(i8* nocapture noundef readonly, ...) local_unnamed_addr #4

; Function Attrs: argmemonly mustprogress nofree nosync nounwind willreturn
declare void @llvm.lifetime.end.p0i8(i64 immarg, i8* nocapture) #1


!llvm.module.flags = !{!0, !1, !2, !3}
!llvm.ident = !{!4}

!0 = !{i32 1, !"wchar_size", i32 4}
!1 = !{i32 7, !"PIC Level", i32 2}
!2 = !{i32 7, !"PIE Level", i32 2}
!3 = !{i32 7, !"uwtable", i32 1}
!4 = !{!"clang version 13.0.0"}
!5 = !{!6, !6, i64 0}
!6 = !{!"omnipotent char", !7, i64 0}
!7 = !{!"Simple C/C++ TBAA"}
!8 = distinct !{!8, !9}
!9 = !{!"llvm.loop.mustprogress"}
!10 = distinct !{!10, !9}
